; Function Attrs: mustprogress nounwind uwtable
define dso_local void @_ZN4llvm18AArch64InstPrinter12printOperandEPKNS_6MCInstEjRKNS_15MCSubtargetInfoERNS_11raw_ostreamE(ptr noundef nonnull align 8 dereferenceable(58) %0, ptr nocapture noundef readonly %1, i32 noundef %2, ptr nocapture noundef nonnull readnone align 8 dereferenceable(288) %3, ptr noundef nonnull align 8 dereferenceable(48) %4) local_unnamed_addr #1 align 2 {
  %6 = getelementptr inbounds nuw i8, ptr %1, i64 16
  %7 = zext i32 %2 to i64
  %8 = load ptr, ptr %6, align 8
  %9 = getelementptr inbounds %"class.llvm::MCOperand", ptr %8, i64 %7
  %10 = load i8, ptr %9, align 8
  switch i8 %10, label %18 [
    i8 1, label %11
    i8 2, label %17
  ]

11:                                               ; preds = %5
  %12 = getelementptr inbounds nuw i8, ptr %9, i64 8
  %13 = load i32, ptr %12, align 8
  %14 = load ptr, ptr %0, align 8
  %15 = getelementptr inbounds i8, ptr %14, i64 40
  %16 = load ptr, ptr %15, align 8
  tail call void %16(ptr noundef nonnull align 8 dereferenceable(58) %0, ptr noundef nonnull align 8 dereferenceable(48) %4, i32 %13) #22
  br label %23

17:                                               ; preds = %5
  tail call void @_ZN4llvm18AArch64InstPrinter8printImmEPKNS_6MCInstEjRKNS_15MCSubtargetInfoERNS_11raw_ostreamE(ptr noundef nonnull align 8 dereferenceable(58) %0, ptr noundef nonnull %1, i32 noundef %2, ptr nonnull align 8 poison, ptr noundef nonnull align 8 dereferenceable(48) %4)
  br label %23

18:                                               ; preds = %5
  %19 = getelementptr inbounds nuw i8, ptr %9, i64 8
  %20 = load ptr, ptr %19, align 8
  %21 = getelementptr inbounds nuw i8, ptr %0, i64 16
  %22 = load ptr, ptr %21, align 8
  tail call void @_ZNK4llvm6MCExpr5printERNS_11raw_ostreamEPKNS_9MCAsmInfoEb(ptr noundef nonnull align 8 dereferenceable(16) %20, ptr noundef nonnull align 8 dereferenceable(48) %4, ptr noundef %22, i1 noundef zeroext false) #22
  br label %23

23:                                               ; preds = %17, %18, %11
  ret void
}